; Function Attrs: nounwind uwtable
define range(i32 0, 16777216) i32 @avio_rb24(ptr noundef %0) local_unnamed_addr #3 {
  %2 = getelementptr inbounds nuw i8, ptr %0, i64 24
  %3 = load ptr, ptr %2, align 8, !tbaa !16
  %4 = getelementptr inbounds nuw i8, ptr %0, i64 32
  %5 = load ptr, ptr %4, align 8, !tbaa !19
  %.not.i.i = icmp ult ptr %3, %5
  br i1 %.not.i.i, label %7, label %6

6:                                                ; preds = %1
  tail call fastcc void @fill_buffer(ptr noundef nonnull %0)
  %.pre.i.i = load ptr, ptr %2, align 8, !tbaa !16
  %.pre7.i.i = load ptr, ptr %4, align 8, !tbaa !19
  br label %7

7:                                                ; preds = %6, %1
  %8 = phi ptr [ %.pre7.i.i, %6 ], [ %5, %1 ]
  %9 = phi ptr [ %.pre.i.i, %6 ], [ %3, %1 ]
  %10 = icmp ult ptr %9, %8
  br i1 %10, label %11, label %avio_r8.exit.i

11:                                               ; preds = %7
  %12 = getelementptr inbounds nuw i8, ptr %9, i64 1
  store ptr %12, ptr %2, align 8, !tbaa !16
  %13 = load i8, ptr %9, align 1, !tbaa !33
  %14 = zext i8 %13 to i32
  %15 = shl nuw nsw i32 %14, 8
  br label %avio_r8.exit.i

avio_r8.exit.i:                                   ; preds = %11, %7
  %16 = phi ptr [ %12, %11 ], [ %9, %7 ]
  %.0.i.i = phi i32 [ %15, %11 ], [ 0, %7 ]
  %.not.i3.i = icmp ult ptr %16, %8
  br i1 %.not.i3.i, label %18, label %17

17:                                               ; preds = %avio_r8.exit.i
  tail call fastcc void @fill_buffer(ptr noundef nonnull %0)
  %.pre.i4.i = load ptr, ptr %2, align 8, !tbaa !16
  %.pre7.i5.i = load ptr, ptr %4, align 8, !tbaa !19
  br label %18

18:                                               ; preds = %17, %avio_r8.exit.i
  %19 = phi ptr [ %.pre7.i5.i, %17 ], [ %8, %avio_r8.exit.i ]
  %20 = phi ptr [ %.pre.i4.i, %17 ], [ %16, %avio_r8.exit.i ]
  %21 = icmp ult ptr %20, %19
  br i1 %21, label %22, label %avio_rb16.exit

22:                                               ; preds = %18
  %23 = getelementptr inbounds nuw i8, ptr %20, i64 1
  store ptr %23, ptr %2, align 8, !tbaa !16
  %24 = load i8, ptr %20, align 1, !tbaa !33
  %25 = zext i8 %24 to i32
  br label %avio_rb16.exit

avio_rb16.exit:                                   ; preds = %18, %22
  %26 = phi ptr [ %23, %22 ], [ %20, %18 ]
  %.0.i6.i = phi i32 [ %25, %22 ], [ 0, %18 ]
  %.not.i = icmp ult ptr %26, %19
  br i1 %.not.i, label %28, label %27

27:                                               ; preds = %avio_rb16.exit
  tail call fastcc void @fill_buffer(ptr noundef nonnull %0)
  %.pre.i = load ptr, ptr %2, align 8, !tbaa !16
  %.pre7.i = load ptr, ptr %4, align 8, !tbaa !19
  br label %28

28:                                               ; preds = %27, %avio_rb16.exit
  %29 = phi ptr [ %.pre7.i, %27 ], [ %19, %avio_rb16.exit ]
  %30 = phi ptr [ %.pre.i, %27 ], [ %26, %avio_rb16.exit ]
  %31 = icmp ult ptr %30, %29
  br i1 %31, label %32, label %avio_r8.exit

32:                                               ; preds = %28
  %33 = getelementptr inbounds nuw i8, ptr %30, i64 1
  store ptr %33, ptr %2, align 8, !tbaa !16
  %34 = load i8, ptr %30, align 1, !tbaa !33
  %35 = zext i8 %34 to i32
  br label %avio_r8.exit

avio_r8.exit:                                     ; preds = %28, %32
  %.0.i = phi i32 [ %35, %32 ], [ 0, %28 ]
  %36 = or disjoint i32 %.0.i6.i, %.0.i.i
  %37 = shl nuw nsw i32 %36, 8
  %38 = or disjoint i32 %.0.i, %37
  ret i32 %38
}